target datalayout = "e-m:e-p270:32:32-p271:32:32-p272:64:64-i64:64-i128:128-f80:128-n8:16:32:64-S128"
target triple = "x86_64-pc-linux-gnu"

%struct.ossl_store_loader_st = type { ptr, ptr, ptr, ptr, ptr, ptr, ptr, ptr, ptr, ptr, ptr, ptr, ptr, i32, ptr, ptr, %struct.CRYPTO_REF_COUNT, ptr, ptr, ptr, ptr, ptr, ptr, ptr, ptr, ptr, ptr }
%struct.CRYPTO_REF_COUNT = type { i32 }

@.str = private unnamed_addr constant [41 x i8] c"../openssl/crypto/store/store_register.c\00", align 1
@.str.1 = private unnamed_addr constant [4 x i8] c"+-.\00", align 1
@__func__.ossl_store_register_loader_int = private unnamed_addr constant [31 x i8] c"ossl_store_register_loader_int\00", align 1
@.str.2 = private unnamed_addr constant [10 x i8] c"scheme=%s\00", align 1
@registry_init = internal global i32 0, align 4
@do_registry_init_ossl_ret_ = internal global i32 0, align 4
@registry_lock = internal global ptr null, align 8
@loader_register = internal global ptr null, align 8

; Function Attrs: inlinehint nounwind uwtable
define internal i32 @lh_OSSL_STORE_LOADER_error(ptr noundef %0) #4 {
  %2 = alloca ptr, align 8
  store ptr %0, ptr %2, align 8, !tbaa !33
  %3 = load ptr, ptr %2, align 8, !tbaa !33
  %4 = call i32 @OPENSSL_LH_error(ptr noundef %3)
  ret i32 %4
}

; Function Attrs: inlinehint nounwind uwtable
define internal ptr @lh_OSSL_STORE_LOADER_insert(ptr noundef %0, ptr noundef %1) #4 {
  %3 = alloca ptr, align 8
  %4 = alloca ptr, align 8
  store ptr %0, ptr %3, align 8, !tbaa !33
  store ptr %1, ptr %4, align 8, !tbaa !10
  %5 = load ptr, ptr %3, align 8, !tbaa !33
  %6 = load ptr, ptr %4, align 8, !tbaa !10
  %7 = call ptr @OPENSSL_LH_insert(ptr noundef %5, ptr noundef %6)
  ret ptr %7
}

; Function Attrs: nounwind uwtable
define i32 @ossl_store_register_loader_int(ptr noundef %0) #0 {
  %2 = alloca i32, align 4
  %3 = alloca ptr, align 8
  %4 = alloca ptr, align 8
  %5 = alloca i32, align 4
  %6 = alloca i32, align 4
  store ptr %0, ptr %3, align 8, !tbaa !10
  call void @llvm.lifetime.start.p0(i64 8, ptr %4) #5
  %7 = load ptr, ptr %3, align 8, !tbaa !10
  %8 = getelementptr inbounds nuw %struct.ossl_store_loader_st, ptr %7, i32 0, i32 0
  %9 = load ptr, ptr %8, align 8, !tbaa !17
  store ptr %9, ptr %4, align 8, !tbaa !8
  call void @llvm.lifetime.start.p0(i64 4, ptr %5) #5
  store i32 0, ptr %5, align 4, !tbaa !29
  %10 = load ptr, ptr %4, align 8, !tbaa !8
  %11 = load i8, ptr %10, align 1, !tbaa !30
  %12 = sext i8 %11 to i32
  %13 = call i32 @ossl_ctype_check(i32 noundef %12, i32 noundef 3)
  %14 = icmp ne i32 %13, 0
  br i1 %14, label %15, label %47

15:                                               ; preds = %1
  br label %16

16:                                               ; preds = %43, %15
  %17 = load ptr, ptr %4, align 8, !tbaa !8
  %18 = load i8, ptr %17, align 1, !tbaa !30
  %19 = sext i8 %18 to i32
  %20 = icmp ne i32 %19, 0
  br i1 %20, label %21, label %41

21:                                               ; preds = %16
  %22 = load ptr, ptr %4, align 8, !tbaa !8
  %23 = load i8, ptr %22, align 1, !tbaa !30
  %24 = sext i8 %23 to i32
  %25 = call i32 @ossl_ctype_check(i32 noundef %24, i32 noundef 3)
  %26 = icmp ne i32 %25, 0
  br i1 %26, label %39, label %27

27:                                               ; preds = %21
  %28 = load ptr, ptr %4, align 8, !tbaa !8
  %29 = load i8, ptr %28, align 1, !tbaa !30
  %30 = sext i8 %29 to i32
  %31 = call i32 @ossl_isdigit(i32 noundef %30)
  %32 = icmp ne i32 %31, 0
  br i1 %32, label %39, label %33

33:                                               ; preds = %27
  %34 = load ptr, ptr %4, align 8, !tbaa !8
  %35 = load i8, ptr %34, align 1, !tbaa !30
  %36 = sext i8 %35 to i32
  %37 = call ptr @strchr(ptr noundef @.str.1, i32 noundef %36) #6
  %38 = icmp ne ptr %37, null
  br label %39

39:                                               ; preds = %33, %27, %21
  %40 = phi i1 [ true, %27 ], [ true, %21 ], [ %38, %33 ]
  br label %41

41:                                               ; preds = %39, %16
  %42 = phi i1 [ false, %16 ], [ %40, %39 ]
  br i1 %42, label %43, label %46

43:                                               ; preds = %41
  %44 = load ptr, ptr %4, align 8, !tbaa !8
  %45 = getelementptr inbounds nuw i8, ptr %44, i32 1
  store ptr %45, ptr %4, align 8, !tbaa !8
  br label %16, !llvm.loop !31

46:                                               ; preds = %41
  br label %47

47:                                               ; preds = %46, %1
  %48 = load ptr, ptr %4, align 8, !tbaa !8
  %49 = load i8, ptr %48, align 1, !tbaa !30
  %50 = sext i8 %49 to i32
  %51 = icmp ne i32 %50, 0
  br i1 %51, label %52, label %56

52:                                               ; preds = %47
  call void @ERR_new()
  call void @ERR_set_debug(ptr noundef @.str, i32 noundef 179, ptr noundef @__func__.ossl_store_register_loader_int)
  %53 = load ptr, ptr %3, align 8, !tbaa !10
  %54 = getelementptr inbounds nuw %struct.ossl_store_loader_st, ptr %53, i32 0, i32 0
  %55 = load ptr, ptr %54, align 8, !tbaa !17
  call void (i32, i32, ptr, ...) @ERR_set_error(i32 noundef 44, i32 noundef 106, ptr noundef @.str.2, ptr noundef %55)
  store i32 0, ptr %2, align 4
  store i32 1, ptr %6, align 4
  br label %112

56:                                               ; preds = %47
  %57 = load ptr, ptr %3, align 8, !tbaa !10
  %58 = getelementptr inbounds nuw %struct.ossl_store_loader_st, ptr %57, i32 0, i32 2
  %59 = load ptr, ptr %58, align 8, !tbaa !19
  %60 = icmp eq ptr %59, null
  br i1 %60, label %81, label %61

61:                                               ; preds = %56
  %62 = load ptr, ptr %3, align 8, !tbaa !10
  %63 = getelementptr inbounds nuw %struct.ossl_store_loader_st, ptr %62, i32 0, i32 7
  %64 = load ptr, ptr %63, align 8, !tbaa !25
  %65 = icmp eq ptr %64, null
  br i1 %65, label %81, label %66

66:                                               ; preds = %61
  %67 = load ptr, ptr %3, align 8, !tbaa !10
  %68 = getelementptr inbounds nuw %struct.ossl_store_loader_st, ptr %67, i32 0, i32 8
  %69 = load ptr, ptr %68, align 8, !tbaa !26
  %70 = icmp eq ptr %69, null
  br i1 %70, label %81, label %71

71:                                               ; preds = %66
  %72 = load ptr, ptr %3, align 8, !tbaa !10
  %73 = getelementptr inbounds nuw %struct.ossl_store_loader_st, ptr %72, i32 0, i32 9
  %74 = load ptr, ptr %73, align 8, !tbaa !27
  %75 = icmp eq ptr %74, null
  br i1 %75, label %81, label %76

76:                                               ; preds = %71
  %77 = load ptr, ptr %3, align 8, !tbaa !10
  %78 = getelementptr inbounds nuw %struct.ossl_store_loader_st, ptr %77, i32 0, i32 10
  %79 = load ptr, ptr %78, align 8, !tbaa !28
  %80 = icmp eq ptr %79, null
  br i1 %80, label %81, label %82

81:                                               ; preds = %76, %71, %66, %61, %56
  call void @ERR_new()
  call void @ERR_set_debug(ptr noundef @.str, i32 noundef 187, ptr noundef @__func__.ossl_store_register_loader_int)
  call void (i32, i32, ptr, ...) @ERR_set_error(i32 noundef 44, i32 noundef 116, ptr noundef null)
  store i32 0, ptr %2, align 4
  store i32 1, ptr %6, align 4
  br label %112

82:                                               ; preds = %76
  %83 = call i32 @CRYPTO_THREAD_run_once(ptr noundef @registry_init, ptr noundef @do_registry_init_ossl_)
  %84 = icmp ne i32 %83, 0
  br i1 %84, label %85, label %88

85:                                               ; preds = %82
  %86 = load i32, ptr @do_registry_init_ossl_ret_, align 4, !tbaa !29
  %87 = icmp ne i32 %86, 0
  br i1 %87, label %90, label %89

88:                                               ; preds = %82
  br i1 false, label %90, label %89

89:                                               ; preds = %88, %85
  call void @ERR_new()
  call void @ERR_set_debug(ptr noundef @.str, i32 noundef 193, ptr noundef @__func__.ossl_store_register_loader_int)
  call void (i32, i32, ptr, ...) @ERR_set_error(i32 noundef 44, i32 noundef 524303, ptr noundef null)
  store i32 0, ptr %2, align 4
  store i32 1, ptr %6, align 4
  br label %112

90:                                               ; preds = %88, %85
  %91 = load ptr, ptr @registry_lock, align 8, !tbaa !18
  %92 = call i32 @CRYPTO_THREAD_write_lock(ptr noundef %91)
  %93 = icmp ne i32 %92, 0
  br i1 %93, label %95, label %94

94:                                               ; preds = %90
  store i32 0, ptr %2, align 4
  store i32 1, ptr %6, align 4
  br label %112

95:                                               ; preds = %90
  %96 = call i32 @ossl_store_register_init()
  %97 = icmp ne i32 %96, 0
  br i1 %97, label %98, label %108

98:                                               ; preds = %95
  %99 = load ptr, ptr @loader_register, align 8, !tbaa !33
  %100 = load ptr, ptr %3, align 8, !tbaa !10
  %101 = call ptr @lh_OSSL_STORE_LOADER_insert(ptr noundef %99, ptr noundef %100)
  %102 = icmp ne ptr %101, null
  br i1 %102, label %107, label %103

103:                                              ; preds = %98
  %104 = load ptr, ptr @loader_register, align 8, !tbaa !33
  %105 = call i32 @lh_OSSL_STORE_LOADER_error(ptr noundef %104)
  %106 = icmp eq i32 %105, 0
  br i1 %106, label %107, label %108

107:                                              ; preds = %103, %98
  store i32 1, ptr %5, align 4, !tbaa !29
  br label %108

108:                                              ; preds = %107, %103, %95
  %109 = load ptr, ptr @registry_lock, align 8, !tbaa !18
  %110 = call i32 @CRYPTO_THREAD_unlock(ptr noundef %109)
  %111 = load i32, ptr %5, align 4, !tbaa !29
  store i32 %111, ptr %2, align 4
  store i32 1, ptr %6, align 4
  br label %112

112:                                              ; preds = %108, %94, %89, %81, %52
  call void @llvm.lifetime.end.p0(i64 4, ptr %5) #5
  call void @llvm.lifetime.end.p0(i64 8, ptr %4) #5
  %113 = load i32, ptr %2, align 4
  ret i32 %113
}