; Function Attrs: nounwind uwtable
define range(i32 0, 2) i32 @ossl_store_register_loader_int(ptr noundef %0) local_unnamed_addr #0 {
  %2 = load ptr, ptr %0, align 8, !tbaa !13
  %3 = load i8, ptr %2, align 1, !tbaa !24
  %4 = sext i8 %3 to i32
  %5 = tail call i32 @ossl_ctype_check(i32 noundef %4, i32 noundef 3) #9
  %.not = icmp eq i32 %5, 0
  %.pr.pre = load i8, ptr %2, align 1, !tbaa !24
  br i1 %.not, label %.critedge, label %.preheader

.preheader:                                       ; preds = %1
  %.not2234 = icmp eq i8 %.pr.pre, 0
  br i1 %.not2234, label %.critedge.thread, label %.lr.ph

.lr.ph:                                           ; preds = %.preheader, %.critedge2
  %6 = phi i8 [ %19, %.critedge2 ], [ %.pr.pre, %.preheader ]
  %.135 = phi ptr [ %18, %.critedge2 ], [ %2, %.preheader ]
  %7 = sext i8 %6 to i32
  %8 = tail call i32 @ossl_ctype_check(i32 noundef %7, i32 noundef 3) #9
  %.not23 = icmp eq i32 %8, 0
  br i1 %.not23, label %9, label %.critedge2

9:                                                ; preds = %.lr.ph
  %10 = load i8, ptr %.135, align 1, !tbaa !24
  %11 = sext i8 %10 to i32
  %12 = tail call i32 @ossl_isdigit(i32 noundef %11) #9
  %.not24 = icmp eq i32 %12, 0
  br i1 %.not24, label %13, label %.critedge2

13:                                               ; preds = %9
  %14 = load i8, ptr %.135, align 1, !tbaa !24
  %15 = zext nneg i8 %14 to i64
  %memchr.bounds = icmp ugt i8 %14, 63
  %16 = shl nuw i64 1, %15
  %17 = and i64 %16, 114349209288705
  %memchr.bits = icmp eq i64 %17, 0
  %memchr25.not = select i1 %memchr.bounds, i1 true, i1 %memchr.bits
  br i1 %memchr25.not, label %.critedge, label %.critedge2

.critedge2:                                       ; preds = %9, %.lr.ph, %13
  %18 = getelementptr inbounds nuw i8, ptr %.135, i64 1
  %19 = load i8, ptr %18, align 1, !tbaa !24
  %.not22 = icmp eq i8 %19, 0
  br i1 %.not22, label %.critedge.thread, label %.lr.ph, !llvm.loop !25

.critedge:                                        ; preds = %13, %1
  %.pr = phi i8 [ %.pr.pre, %1 ], [ %14, %13 ]
  %.not27 = icmp eq i8 %.pr, 0
  br i1 %.not27, label %.critedge.thread, label %20

20:                                               ; preds = %.critedge
  tail call void @ERR_new() #9
  tail call void @ERR_set_debug(ptr noundef nonnull @.str, i32 noundef 179, ptr noundef nonnull @__func__.ossl_store_register_loader_int) #9
  %21 = load ptr, ptr %0, align 8, !tbaa !13
  tail call void (i32, i32, ptr, ...) @ERR_set_error(i32 noundef 44, i32 noundef 106, ptr noundef nonnull @.str.2, ptr noundef %21) #9
  br label %64

.critedge.thread:                                 ; preds = %.critedge2, %.preheader, %.critedge
  %22 = getelementptr inbounds nuw i8, ptr %0, i64 16
  %23 = load ptr, ptr %22, align 8, !tbaa !14
  %24 = icmp eq ptr %23, null
  br i1 %24, label %41, label %25

25:                                               ; preds = %.critedge.thread
  %26 = getelementptr inbounds nuw i8, ptr %0, i64 56
  %27 = load ptr, ptr %26, align 8, !tbaa !20
  %28 = icmp eq ptr %27, null
  br i1 %28, label %41, label %29

29:                                               ; preds = %25
  %30 = getelementptr inbounds nuw i8, ptr %0, i64 64
  %31 = load ptr, ptr %30, align 8, !tbaa !21
  %32 = icmp eq ptr %31, null
  br i1 %32, label %41, label %33

33:                                               ; preds = %29
  %34 = getelementptr inbounds nuw i8, ptr %0, i64 72
  %35 = load ptr, ptr %34, align 8, !tbaa !22
  %36 = icmp eq ptr %35, null
  br i1 %36, label %41, label %37

37:                                               ; preds = %33
  %38 = getelementptr inbounds nuw i8, ptr %0, i64 80
  %39 = load ptr, ptr %38, align 8, !tbaa !23
  %40 = icmp eq ptr %39, null
  br i1 %40, label %41, label %42

41:                                               ; preds = %37, %33, %29, %25, %.critedge.thread
  tail call void @ERR_new() #9
  tail call void @ERR_set_debug(ptr noundef nonnull @.str, i32 noundef 187, ptr noundef nonnull @__func__.ossl_store_register_loader_int) #9
  tail call void (i32, i32, ptr, ...) @ERR_set_error(i32 noundef 44, i32 noundef 116, ptr noundef null) #9
  br label %64

42:                                               ; preds = %37
  %43 = tail call i32 @CRYPTO_THREAD_run_once(ptr noundef nonnull @registry_init, ptr noundef nonnull @do_registry_init_ossl_) #9
  %44 = icmp ne i32 %43, 0
  %45 = load i32, ptr @do_registry_init_ossl_ret_, align 4
  %46 = icmp ne i32 %45, 0
  %or.cond = select i1 %44, i1 %46, i1 false
  br i1 %or.cond, label %48, label %47

47:                                               ; preds = %42
  tail call void @ERR_new() #9
  tail call void @ERR_set_debug(ptr noundef nonnull @.str, i32 noundef 193, ptr noundef nonnull @__func__.ossl_store_register_loader_int) #9
  tail call void (i32, i32, ptr, ...) @ERR_set_error(i32 noundef 44, i32 noundef 524303, ptr noundef null) #9
  br label %64

48:                                               ; preds = %42
  %49 = load ptr, ptr @registry_lock, align 8, !tbaa !27
  %50 = tail call i32 @CRYPTO_THREAD_write_lock(ptr noundef %49) #9
  %.not28 = icmp eq i32 %50, 0
  br i1 %.not28, label %64, label %51

51:                                               ; preds = %48
  %52 = tail call fastcc i32 @ossl_store_register_init()
  %.not29 = icmp eq i32 %52, 0
  br i1 %.not29, label %61, label %53

53:                                               ; preds = %51
  %54 = load ptr, ptr @loader_register, align 8, !tbaa !28
  %55 = tail call ptr @OPENSSL_LH_insert(ptr noundef %54, ptr noundef nonnull %0) #9
  %.not30 = icmp eq ptr %55, null
  br i1 %.not30, label %56, label %60

56:                                               ; preds = %53
  %57 = load ptr, ptr @loader_register, align 8, !tbaa !28
  %58 = tail call i32 @OPENSSL_LH_error(ptr noundef %57) #9
  %59 = icmp eq i32 %58, 0
  br i1 %59, label %60, label %61

60:                                               ; preds = %56, %53
  br label %61

61:                                               ; preds = %60, %56, %51
  %.0 = phi i32 [ 1, %60 ], [ 0, %56 ], [ 0, %51 ]
  %62 = load ptr, ptr @registry_lock, align 8, !tbaa !27
  %63 = tail call i32 @CRYPTO_THREAD_unlock(ptr noundef %62) #9
  br label %64

64:                                               ; preds = %48, %61, %47, %41, %20
  %.020 = phi i32 [ 0, %20 ], [ 0, %41 ], [ %.0, %61 ], [ 0, %47 ], [ 0, %48 ]
  ret i32 %.020
}